target datalayout = "e-m:e-p270:32:32-p271:32:32-p272:64:64-i64:64-i128:128-f80:128-n8:16:32:64-S128"
target triple = "x86_64-pc-linux-gnu"

%struct._cairo_rectangle_int = type { i32, i32, i32, i32 }
%struct.darktable_t = type { %struct.dt_codepath_t, i32, i32, ptr, ptr, ptr, ptr, ptr, ptr, ptr, ptr, ptr, ptr, ptr, ptr, ptr, ptr, ptr, ptr, ptr, ptr, ptr, ptr, ptr, ptr, ptr, ptr, ptr, ptr, ptr, [64 x %struct.dt_pthread_mutex_t], %struct.dt_pthread_mutex_t, %struct.dt_pthread_mutex_t, %struct.dt_pthread_mutex_t, %struct.dt_pthread_mutex_t, %struct.dt_pthread_mutex_t, ptr, ptr, ptr, ptr, ptr, ptr, ptr, ptr, ptr, ptr, ptr, ptr, ptr, %struct.dt_lua_state_t, ptr, double, ptr, i32, [47 x i32], i32, i32, ptr, ptr, %struct.dt_sys_resources_t, %struct.dt_backthumb_t, %struct.dt_gimp_t }
%struct.dt_codepath_t = type { i8, [3 x i8] }
%struct.dt_pthread_mutex_t = type { %union.pthread_mutex_t }
%union.pthread_mutex_t = type { %struct.__pthread_mutex_s }
%struct.__pthread_mutex_s = type { i32, i32, i32, i32, i32, i16, i16, %struct.__pthread_internal_list }
%struct.__pthread_internal_list = type { ptr, ptr }
%struct.dt_lua_state_t = type { i32 }
%struct.dt_sys_resources_t = type { i64, i64, ptr, ptr, i32 }
%struct.dt_backthumb_t = type { double, double, i32, i32, i32, i32 }
%struct.dt_gimp_t = type { i32, ptr, ptr, i32, i32 }
%struct.dt_lib_t = type { ptr, ptr, %struct.anon }
%struct.anon = type { %struct.anon.0, %struct.anon.1, %struct.anon.2, %struct.anon.3 }
%struct.anon.0 = type { ptr, ptr, ptr, ptr, ptr, i32, i32, i32, ptr, ptr, ptr, ptr, ptr }
%struct.anon.1 = type { ptr, ptr, i32 }
%struct.anon.2 = type { ptr }
%struct.anon.3 = type { i32 }
%struct.dt_lib_module_t = type { %struct.dt_action_t, ptr, ptr, ptr, ptr, ptr, ptr, ptr, ptr, ptr, ptr, ptr, ptr, ptr, ptr, ptr, ptr, ptr, ptr, ptr, ptr, ptr, ptr, ptr, ptr, ptr, ptr, ptr, ptr, ptr, ptr, [128 x i8], ptr, ptr, i32, ptr, ptr, ptr, i32 }
%struct.dt_action_t = type { i32, ptr, ptr, ptr, ptr, ptr }

@_start_pos = internal global %struct._cairo_rectangle_int zeroinitializer, align 4
@.str.1 = private unnamed_addr constant [32 x i8] c"darkroom/ui/transition_duration\00", align 1
@_drop_widget = internal global ptr null, align 8
@darktable = external global %struct.darktable_t, align 8
@_scroll_widget = internal global ptr null, align 8

; Function Attrs: nounwind uwtable
define internal void @_expander_resize(ptr noundef %0, ptr noundef %1, ptr noundef %2) #0 {
  %4 = alloca ptr, align 8
  %5 = alloca ptr, align 8
  %6 = alloca ptr, align 8
  %7 = alloca ptr, align 8
  store ptr %0, ptr %4, align 8, !tbaa !41
  store ptr %1, ptr %5, align 8, !tbaa !52
  store ptr %2, ptr %6, align 8, !tbaa !30
  %8 = load ptr, ptr %4, align 8, !tbaa !41
  %9 = load ptr, ptr @_scroll_widget, align 8, !tbaa !41
  %10 = icmp eq ptr %8, %9
  br i1 %10, label %14, label %11

11:                                               ; preds = %3
  %12 = load ptr, ptr @_drop_widget, align 8, !tbaa !41
  %13 = icmp ne ptr %12, null
  br i1 %13, label %14, label %18

14:                                               ; preds = %11, %3
  %15 = load ptr, ptr %4, align 8, !tbaa !41
  %16 = load ptr, ptr @_drop_widget, align 8, !tbaa !41
  %17 = icmp ne ptr %15, %16
  br i1 %17, label %41, label %42

18:                                               ; preds = %11
  %19 = load ptr, ptr %6, align 8, !tbaa !30
  %20 = call i32 @gtk_widget_get_state_flags(ptr noundef %19)
  %21 = and i32 %20, 4
  %22 = icmp ne i32 %21, 0
  br i1 %22, label %23, label %28

23:                                               ; preds = %18
  %24 = load ptr, ptr %4, align 8, !tbaa !41
  %25 = call i32 @gtk_widget_get_allocated_height(ptr noundef %24)
  %26 = load i32, ptr getelementptr inbounds nuw (%struct._cairo_rectangle_int, ptr @_start_pos, i32 0, i32 3), align 4, !tbaa !47
  %27 = icmp eq i32 %25, %26
  br i1 %27, label %28, label %42

28:                                               ; preds = %23, %18
  %29 = load ptr, ptr getelementptr inbounds nuw (%struct.darktable_t, ptr @darktable, i32 0, i32 10), align 8, !tbaa !54
  %30 = getelementptr inbounds nuw %struct.dt_lib_t, ptr %29, i32 0, i32 1
  %31 = load ptr, ptr %30, align 8, !tbaa !91
  %32 = icmp ne ptr %31, null
  br i1 %32, label %33, label %41

33:                                               ; preds = %28
  %34 = load ptr, ptr getelementptr inbounds nuw (%struct.darktable_t, ptr @darktable, i32 0, i32 10), align 8, !tbaa !54
  %35 = getelementptr inbounds nuw %struct.dt_lib_t, ptr %34, i32 0, i32 1
  %36 = load ptr, ptr %35, align 8, !tbaa !91
  %37 = getelementptr inbounds nuw %struct.dt_lib_module_t, ptr %36, i32 0, i32 33
  %38 = load ptr, ptr %37, align 8, !tbaa !101
  %39 = load ptr, ptr %4, align 8, !tbaa !41
  %40 = icmp ne ptr %38, %39
  br i1 %40, label %41, label %42

41:                                               ; preds = %33, %28, %14
  br label %59

42:                                               ; preds = %33, %23, %14
  %43 = load ptr, ptr %4, align 8, !tbaa !41
  store ptr %43, ptr @_scroll_widget, align 8, !tbaa !41
  call void @llvm.lifetime.start.p0(i64 8, ptr %7) #10
  %44 = load ptr, ptr %4, align 8, !tbaa !41
  %45 = call ptr @gtk_widget_get_frame_clock(ptr noundef %44)
  store ptr %45, ptr %7, align 8, !tbaa !106
  %46 = load ptr, ptr %7, align 8, !tbaa !106
  %47 = icmp ne ptr %46, null
  br i1 %47, label %48, label %58

48:                                               ; preds = %42
  %49 = load ptr, ptr %4, align 8, !tbaa !41
  %50 = load ptr, ptr %7, align 8, !tbaa !106
  %51 = call i64 @gdk_frame_clock_get_frame_time(ptr noundef %50)
  %52 = call i32 @dt_conf_get_int(ptr noundef @.str.1)
  %53 = mul nsw i32 %52, 1000
  %54 = sext i32 %53 to i64
  %55 = add nsw i64 %51, %54
  %56 = inttoptr i64 %55 to ptr
  %57 = call i32 @gtk_widget_add_tick_callback(ptr noundef %49, ptr noundef @_expander_scroll, ptr noundef %56, ptr noundef null)
  br label %58

58:                                               ; preds = %48, %42
  call void @llvm.lifetime.end.p0(i64 8, ptr %7) #10
  br label %59

59:                                               ; preds = %58, %41
  ret void
}