; Function Attrs: nounwind uwtable
define internal void @_expander_resize(ptr noundef %0, ptr readnone captures(none) %1, ptr noundef %2) #0 {
  %4 = load ptr, ptr @_scroll_widget, align 8, !tbaa !34
  %5 = icmp eq ptr %0, %4
  %6 = load ptr, ptr @_drop_widget, align 8
  %7 = icmp ne ptr %6, null
  %or.cond = select i1 %5, i1 true, i1 %7
  br i1 %or.cond, label %8, label %9

8:                                                ; preds = %3
  %.not15 = icmp eq ptr %0, %6
  br i1 %.not15, label %23, label %33

9:                                                ; preds = %3
  %10 = tail call i32 @gtk_widget_get_state_flags(ptr noundef %2) #10
  %11 = and i32 %10, 4
  %.not = icmp eq i32 %11, 0
  br i1 %.not, label %16, label %12

12:                                               ; preds = %9
  %13 = tail call i32 @gtk_widget_get_allocated_height(ptr noundef %0) #10
  %14 = load i32, ptr getelementptr inbounds nuw (i8, ptr @_start_pos, i64 12), align 4, !tbaa !40
  %15 = icmp eq i32 %13, %14
  br i1 %15, label %16, label %23

16:                                               ; preds = %12, %9
  %17 = load ptr, ptr getelementptr inbounds nuw (i8, ptr @darktable, i64 72), align 8, !tbaa !83
  %18 = getelementptr inbounds nuw i8, ptr %17, i64 8
  %19 = load ptr, ptr %18, align 8, !tbaa !84
  %.not13 = icmp eq ptr %19, null
  br i1 %.not13, label %33, label %20

20:                                               ; preds = %16
  %21 = getelementptr inbounds nuw i8, ptr %19, i64 424
  %22 = load ptr, ptr %21, align 8, !tbaa !94
  %.not14 = icmp eq ptr %22, %0
  br i1 %.not14, label %23, label %33

23:                                               ; preds = %20, %12, %8
  store ptr %0, ptr @_scroll_widget, align 8, !tbaa !34
  %24 = tail call ptr @gtk_widget_get_frame_clock(ptr noundef %0) #10
  %.not16 = icmp eq ptr %24, null
  br i1 %.not16, label %33, label %25

25:                                               ; preds = %23
  %26 = tail call i64 @gdk_frame_clock_get_frame_time(ptr noundef nonnull %24) #10
  %27 = tail call i32 @dt_conf_get_int(ptr noundef nonnull @.str.1) #10
  %28 = mul nsw i32 %27, 1000
  %29 = sext i32 %28 to i64
  %30 = add nsw i64 %26, %29
  %31 = inttoptr i64 %30 to ptr
  %32 = tail call i32 @gtk_widget_add_tick_callback(ptr noundef %0, ptr noundef nonnull @_expander_scroll, ptr noundef %31, ptr noundef null) #10
  br label %33

33:                                               ; preds = %23, %25, %8, %16, %20
  ret void
}